target datalayout = "e-m:e-p270:32:32-p271:32:32-p272:64:64-i64:64-i128:128-f80:128-n8:16:32:64-S128"
target triple = "x86_64-unknown-linux-gnu"

; Function Attrs: mustprogress uwtable
define noundef i32 @_ZN6icu_7522RuleBasedBreakIterator4nextEi(ptr noundef nonnull align 8 dereferenceable(745) %this, i32 noundef %n) unnamed_addr #1 align 2 {
entry:
  %this.addr = alloca ptr, align 8
  %n.addr = alloca i32, align 4
  %result = alloca i32, align 4
  store ptr %this, ptr %this.addr, align 8
  store i32 %n, ptr %n.addr, align 4
  %this1 = load ptr, ptr %this.addr, align 8
  store i32 0, ptr %result, align 4
  %0 = load i32, ptr %n.addr, align 4
  %cmp = icmp sgt i32 %0, 0
  br i1 %cmp, label %if.then, label %if.else

if.then:                                          ; preds = %entry
  br label %for.cond

for.cond:                                         ; preds = %for.inc, %if.then
  %1 = load i32, ptr %n.addr, align 4
  %cmp2 = icmp sgt i32 %1, 0
  br i1 %cmp2, label %land.rhs, label %land.end

land.rhs:                                         ; preds = %for.cond
  %2 = load i32, ptr %result, align 4
  %cmp3 = icmp ne i32 %2, -1
  br label %land.end

land.end:                                         ; preds = %land.rhs, %for.cond
  %3 = phi i1 [ false, %for.cond ], [ %cmp3, %land.rhs ]
  br i1 %3, label %for.body, label %for.end

for.body:                                         ; preds = %land.end
  %vtable = load ptr, ptr %this1, align 8
  %vfn = getelementptr inbounds ptr, ptr %vtable, i64 13
  %4 = load ptr, ptr %vfn, align 8
  %call = call noundef i32 %4(ptr noundef nonnull align 8 dereferenceable(745) %this1)
  store i32 %call, ptr %result, align 4
  br label %for.inc

for.inc:                                          ; preds = %for.body
  %5 = load i32, ptr %n.addr, align 4
  %dec = add nsw i32 %5, -1
  store i32 %dec, ptr %n.addr, align 4
  br label %for.cond, !llvm.loop !5

for.end:                                          ; preds = %land.end
  br label %if.end21

if.else:                                          ; preds = %entry
  %6 = load i32, ptr %n.addr, align 4
  %cmp4 = icmp slt i32 %6, 0
  br i1 %cmp4, label %if.then5, label %if.else17

if.then5:                                         ; preds = %if.else
  br label %for.cond6

for.cond6:                                        ; preds = %for.inc15, %if.then5
  %7 = load i32, ptr %n.addr, align 4
  %cmp7 = icmp slt i32 %7, 0
  br i1 %cmp7, label %land.rhs8, label %land.end10

land.rhs8:                                        ; preds = %for.cond6
  %8 = load i32, ptr %result, align 4
  %cmp9 = icmp ne i32 %8, -1
  br label %land.end10

land.end10:                                       ; preds = %land.rhs8, %for.cond6
  %9 = phi i1 [ false, %for.cond6 ], [ %cmp9, %land.rhs8 ]
  br i1 %9, label %for.body11, label %for.end16

for.body11:                                       ; preds = %land.end10
  %vtable12 = load ptr, ptr %this1, align 8
  %vfn13 = getelementptr inbounds ptr, ptr %vtable12, i64 12
  %10 = load ptr, ptr %vfn13, align 8
  %call14 = call noundef i32 %10(ptr noundef nonnull align 8 dereferenceable(745) %this1)
  store i32 %call14, ptr %result, align 4
  br label %for.inc15

for.inc15:                                        ; preds = %for.body11
  %11 = load i32, ptr %n.addr, align 4
  %inc = add nsw i32 %11, 1
  store i32 %inc, ptr %n.addr, align 4
  br label %for.cond6, !llvm.loop !7

for.end16:                                        ; preds = %land.end10
  br label %if.end

if.else17:                                        ; preds = %if.else
  %vtable18 = load ptr, ptr %this1, align 8
  %vfn19 = getelementptr inbounds ptr, ptr %vtable18, i64 14
  %12 = load ptr, ptr %vfn19, align 8
  %call20 = call noundef i32 %12(ptr noundef nonnull align 8 dereferenceable(745) %this1)
  store i32 %call20, ptr %result, align 4
  br label %if.end

if.end:                                           ; preds = %if.else17, %for.end16
  br label %if.end21

if.end21:                                         ; preds = %if.end, %for.end
  %13 = load i32, ptr %result, align 4
  ret i32 %13
}