; Function Attrs: mustprogress uwtable
define noundef i32 @_ZN6icu_7522RuleBasedBreakIterator4nextEi(ptr noundef nonnull align 8 dereferenceable(745) %this, i32 noundef %n) unnamed_addr #1 align 2 {
entry:
  %cmp = icmp sgt i32 %n, 0
  br i1 %cmp, label %for.body, label %if.else

for.body:                                         ; preds = %entry, %for.body
  %n.addr.010 = phi i32 [ %dec, %for.body ], [ %n, %entry ]
  %vtable = load ptr, ptr %this, align 8
  %vfn = getelementptr inbounds i8, ptr %vtable, i64 104
  %0 = load ptr, ptr %vfn, align 8
  %call = tail call noundef i32 %0(ptr noundef nonnull align 8 dereferenceable(745) %this)
  %dec = add nsw i32 %n.addr.010, -1
  %cmp2 = icmp ugt i32 %n.addr.010, 1
  %cmp3 = icmp ne i32 %call, -1
  %1 = and i1 %cmp2, %cmp3
  br i1 %1, label %for.body, label %if.end21, !llvm.loop !5

if.else:                                          ; preds = %entry
  %cmp4 = icmp slt i32 %n, 0
  br i1 %cmp4, label %for.body11, label %if.else17

for.body11:                                       ; preds = %if.else, %for.body11
  %n.addr.19 = phi i32 [ %inc, %for.body11 ], [ %n, %if.else ]
  %vtable12 = load ptr, ptr %this, align 8
  %vfn13 = getelementptr inbounds i8, ptr %vtable12, i64 96
  %2 = load ptr, ptr %vfn13, align 8
  %call14 = tail call noundef i32 %2(ptr noundef nonnull align 8 dereferenceable(745) %this)
  %inc = add nsw i32 %n.addr.19, 1
  %cmp7 = icmp ne i32 %n.addr.19, -1
  %cmp9 = icmp ne i32 %call14, -1
  %3 = and i1 %cmp7, %cmp9
  br i1 %3, label %for.body11, label %if.end21, !llvm.loop !7

if.else17:                                        ; preds = %if.else
  %vtable18 = load ptr, ptr %this, align 8
  %vfn19 = getelementptr inbounds i8, ptr %vtable18, i64 112
  %4 = load ptr, ptr %vfn19, align 8
  %call20 = tail call noundef i32 %4(ptr noundef nonnull align 8 dereferenceable(745) %this)
  br label %if.end21

if.end21:                                         ; preds = %for.body11, %for.body, %if.else17
  %result.2 = phi i32 [ %call20, %if.else17 ], [ %call, %for.body ], [ %call14, %for.body11 ]
  ret i32 %result.2
}